target datalayout = "e-m:e-p270:32:32-p271:32:32-p272:64:64-i64:64-i128:128-f80:128-n8:16:32:64-S128"
target triple = "x86_64-pc-linux-gnu"

%struct.AlacEncodeContext = type { ptr, ptr, i32, i32, i32, i32, i32, i32, i32, i32, [2 x [4096 x i32]], [2 x [4096 x i32]], i32, i32, %struct.PutBitContext, %struct.RiceContext, [2 x %struct.AlacLPCContext], %struct.LPCContext }
%struct.PutBitContext = type { i32, i32, ptr, ptr, ptr }
%struct.RiceContext = type { i32, i32, i32, i32 }
%struct.AlacLPCContext = type { i32, [31 x i32], i32 }
%struct.LPCContext = type { i32, i32, i32, ptr, ptr, ptr, ptr, [2 x %struct.LLSModel] }
%struct.LLSModel = type { [36 x [36 x double]], [32 x [32 x double]], [32 x double], i32, ptr, ptr, [8 x i8] }

@.str.9 = private unnamed_addr constant [43 x i8] c"Internal error, put_bits buffer too small\0A\00", align 1

; Function Attrs: alwaysinline nounwind willreturn memory(none) uwtable
define internal i32 @av_bswap32(i32 noundef %0) #4 {
  %2 = alloca i32, align 4
  store i32 %0, ptr %2, align 4, !tbaa !57
  %3 = load i32, ptr %2, align 4, !tbaa !57
  %4 = shl i32 %3, 8
  %5 = and i32 %4, 65280
  %6 = load i32, ptr %2, align 4, !tbaa !57
  %7 = lshr i32 %6, 8
  %8 = and i32 %7, 255
  %9 = or i32 %5, %8
  %10 = shl i32 %9, 16
  %11 = load i32, ptr %2, align 4, !tbaa !57
  %12 = lshr i32 %11, 16
  %13 = shl i32 %12, 8
  %14 = and i32 %13, 65280
  %15 = load i32, ptr %2, align 4, !tbaa !57
  %16 = lshr i32 %15, 16
  %17 = lshr i32 %16, 8
  %18 = and i32 %17, 255
  %19 = or i32 %14, %18
  %20 = or i32 %10, %19
  ret i32 %20
}

; Function Attrs: inlinehint nounwind uwtable
define internal void @put_bits_no_assert(ptr noundef %0, i32 noundef %1, i32 noundef %2) #6 {
  %4 = alloca ptr, align 8
  %5 = alloca i32, align 4
  %6 = alloca i32, align 4
  %7 = alloca i32, align 4
  %8 = alloca i32, align 4
  store ptr %0, ptr %4, align 8, !tbaa !73
  store i32 %1, ptr %5, align 4, !tbaa !57
  store i32 %2, ptr %6, align 4, !tbaa !57
  call void @llvm.lifetime.start.p0(i64 4, ptr %7) #10
  call void @llvm.lifetime.start.p0(i64 4, ptr %8) #10
  %9 = load ptr, ptr %4, align 8, !tbaa !73
  %10 = getelementptr inbounds nuw %struct.PutBitContext, ptr %9, i32 0, i32 0
  %11 = load i32, ptr %10, align 8, !tbaa !83
  store i32 %11, ptr %7, align 4, !tbaa !57
  %12 = load ptr, ptr %4, align 8, !tbaa !73
  %13 = getelementptr inbounds nuw %struct.PutBitContext, ptr %12, i32 0, i32 1
  %14 = load i32, ptr %13, align 4, !tbaa !82
  store i32 %14, ptr %8, align 4, !tbaa !57
  %15 = load i32, ptr %5, align 4, !tbaa !57
  %16 = load i32, ptr %8, align 4, !tbaa !57
  %17 = icmp slt i32 %15, %16
  br i1 %17, label %18, label %27

18:                                               ; preds = %3
  %19 = load i32, ptr %7, align 4, !tbaa !57
  %20 = load i32, ptr %5, align 4, !tbaa !57
  %21 = shl i32 %19, %20
  %22 = load i32, ptr %6, align 4, !tbaa !57
  %23 = or i32 %21, %22
  store i32 %23, ptr %7, align 4, !tbaa !57
  %24 = load i32, ptr %5, align 4, !tbaa !57
  %25 = load i32, ptr %8, align 4, !tbaa !57
  %26 = sub nsw i32 %25, %24
  store i32 %26, ptr %8, align 4, !tbaa !57
  br label %65

27:                                               ; preds = %3
  %28 = load i32, ptr %8, align 4, !tbaa !57
  %29 = load i32, ptr %7, align 4, !tbaa !57
  %30 = shl i32 %29, %28
  store i32 %30, ptr %7, align 4, !tbaa !57
  %31 = load i32, ptr %6, align 4, !tbaa !57
  %32 = load i32, ptr %5, align 4, !tbaa !57
  %33 = load i32, ptr %8, align 4, !tbaa !57
  %34 = sub nsw i32 %32, %33
  %35 = lshr i32 %31, %34
  %36 = load i32, ptr %7, align 4, !tbaa !57
  %37 = or i32 %36, %35
  store i32 %37, ptr %7, align 4, !tbaa !57
  %38 = load ptr, ptr %4, align 8, !tbaa !73
  %39 = getelementptr inbounds nuw %struct.PutBitContext, ptr %38, i32 0, i32 4
  %40 = load ptr, ptr %39, align 8, !tbaa !80
  %41 = load ptr, ptr %4, align 8, !tbaa !73
  %42 = getelementptr inbounds nuw %struct.PutBitContext, ptr %41, i32 0, i32 3
  %43 = load ptr, ptr %42, align 8, !tbaa !81
  %44 = ptrtoint ptr %40 to i64
  %45 = ptrtoint ptr %43 to i64
  %46 = sub i64 %44, %45
  %47 = icmp uge i64 %46, 4
  br i1 %47, label %48, label %58

48:                                               ; preds = %27
  %49 = load i32, ptr %7, align 4, !tbaa !57
  %50 = call i32 @av_bswap32(i32 noundef %49) #11
  %51 = load ptr, ptr %4, align 8, !tbaa !73
  %52 = getelementptr inbounds nuw %struct.PutBitContext, ptr %51, i32 0, i32 3
  %53 = load ptr, ptr %52, align 8, !tbaa !81
  store i32 %50, ptr %53, align 1, !tbaa !52
  %54 = load ptr, ptr %4, align 8, !tbaa !73
  %55 = getelementptr inbounds nuw %struct.PutBitContext, ptr %54, i32 0, i32 3
  %56 = load ptr, ptr %55, align 8, !tbaa !81
  %57 = getelementptr inbounds nuw i8, ptr %56, i64 4
  store ptr %57, ptr %55, align 8, !tbaa !81
  br label %59

58:                                               ; preds = %27
  call void (ptr, i32, ptr, ...) @av_log(ptr noundef null, i32 noundef 16, ptr noundef @.str.9)
  br label %59

59:                                               ; preds = %58, %48
  %60 = load i32, ptr %5, align 4, !tbaa !57
  %61 = sub nsw i32 32, %60
  %62 = load i32, ptr %8, align 4, !tbaa !57
  %63 = add nsw i32 %62, %61
  store i32 %63, ptr %8, align 4, !tbaa !57
  %64 = load i32, ptr %6, align 4, !tbaa !57
  store i32 %64, ptr %7, align 4, !tbaa !57
  br label %65

65:                                               ; preds = %59, %18
  %66 = load i32, ptr %7, align 4, !tbaa !57
  %67 = load ptr, ptr %4, align 8, !tbaa !73
  %68 = getelementptr inbounds nuw %struct.PutBitContext, ptr %67, i32 0, i32 0
  store i32 %66, ptr %68, align 8, !tbaa !83
  %69 = load i32, ptr %8, align 4, !tbaa !57
  %70 = load ptr, ptr %4, align 8, !tbaa !73
  %71 = getelementptr inbounds nuw %struct.PutBitContext, ptr %70, i32 0, i32 1
  store i32 %69, ptr %71, align 4, !tbaa !82
  call void @llvm.lifetime.end.p0(i64 4, ptr %8) #10
  call void @llvm.lifetime.end.p0(i64 4, ptr %7) #10
  ret void
}

; Function Attrs: inlinehint nounwind uwtable
define internal void @put_bits(ptr noundef %0, i32 noundef %1, i32 noundef %2) #6 {
  %4 = alloca ptr, align 8
  %5 = alloca i32, align 4
  %6 = alloca i32, align 4
  store ptr %0, ptr %4, align 8, !tbaa !73
  store i32 %1, ptr %5, align 4, !tbaa !57
  store i32 %2, ptr %6, align 4, !tbaa !57
  %7 = load ptr, ptr %4, align 8, !tbaa !73
  %8 = load i32, ptr %5, align 4, !tbaa !57
  %9 = load i32, ptr %6, align 4, !tbaa !57
  call void @put_bits_no_assert(ptr noundef %7, i32 noundef %8, i32 noundef %9)
  ret void
}

; Function Attrs: nounwind uwtable
define internal void @encode_scalar(ptr noundef %0, i32 noundef %1, i32 noundef %2, i32 noundef %3) #1 {
  %5 = alloca ptr, align 8
  %6 = alloca i32, align 4
  %7 = alloca i32, align 4
  %8 = alloca i32, align 4
  %9 = alloca i32, align 4
  %10 = alloca i32, align 4
  %11 = alloca i32, align 4
  store ptr %0, ptr %5, align 8, !tbaa !29
  store i32 %1, ptr %6, align 4, !tbaa !57
  store i32 %2, ptr %7, align 4, !tbaa !57
  store i32 %3, ptr %8, align 4, !tbaa !57
  call void @llvm.lifetime.start.p0(i64 4, ptr %9) #10
  call void @llvm.lifetime.start.p0(i64 4, ptr %10) #10
  call void @llvm.lifetime.start.p0(i64 4, ptr %11) #10
  %12 = load i32, ptr %7, align 4, !tbaa !57
  %13 = load ptr, ptr %5, align 8, !tbaa !29
  %14 = getelementptr inbounds nuw %struct.AlacEncodeContext, ptr %13, i32 0, i32 15
  %15 = getelementptr inbounds nuw %struct.RiceContext, ptr %14, i32 0, i32 2
  %16 = load i32, ptr %15, align 8, !tbaa !45
  %17 = icmp sgt i32 %12, %16
  br i1 %17, label %18, label %23

18:                                               ; preds = %4
  %19 = load ptr, ptr %5, align 8, !tbaa !29
  %20 = getelementptr inbounds nuw %struct.AlacEncodeContext, ptr %19, i32 0, i32 15
  %21 = getelementptr inbounds nuw %struct.RiceContext, ptr %20, i32 0, i32 2
  %22 = load i32, ptr %21, align 8, !tbaa !45
  br label %25

23:                                               ; preds = %4
  %24 = load i32, ptr %7, align 4, !tbaa !57
  br label %25

25:                                               ; preds = %23, %18
  %26 = phi i32 [ %22, %18 ], [ %24, %23 ]
  store i32 %26, ptr %7, align 4, !tbaa !57
  %27 = load i32, ptr %7, align 4, !tbaa !57
  %28 = shl i32 1, %27
  %29 = sub nsw i32 %28, 1
  store i32 %29, ptr %9, align 4, !tbaa !57
  %30 = load i32, ptr %6, align 4, !tbaa !57
  %31 = load i32, ptr %9, align 4, !tbaa !57
  %32 = sdiv i32 %30, %31
  store i32 %32, ptr %10, align 4, !tbaa !57
  %33 = load i32, ptr %6, align 4, !tbaa !57
  %34 = load i32, ptr %9, align 4, !tbaa !57
  %35 = srem i32 %33, %34
  store i32 %35, ptr %11, align 4, !tbaa !57
  %36 = load i32, ptr %10, align 4, !tbaa !57
  %37 = icmp sgt i32 %36, 8
  br i1 %37, label %38, label %45

38:                                               ; preds = %25
  %39 = load ptr, ptr %5, align 8, !tbaa !29
  %40 = getelementptr inbounds nuw %struct.AlacEncodeContext, ptr %39, i32 0, i32 14
  call void @put_bits(ptr noundef %40, i32 noundef 9, i32 noundef 511)
  %41 = load ptr, ptr %5, align 8, !tbaa !29
  %42 = getelementptr inbounds nuw %struct.AlacEncodeContext, ptr %41, i32 0, i32 14
  %43 = load i32, ptr %8, align 4, !tbaa !57
  %44 = load i32, ptr %6, align 4, !tbaa !57
  call void @put_bits(ptr noundef %42, i32 noundef %43, i32 noundef %44)
  br label %76

45:                                               ; preds = %25
  %46 = load i32, ptr %10, align 4, !tbaa !57
  %47 = icmp ne i32 %46, 0
  br i1 %47, label %48, label %55

48:                                               ; preds = %45
  %49 = load ptr, ptr %5, align 8, !tbaa !29
  %50 = getelementptr inbounds nuw %struct.AlacEncodeContext, ptr %49, i32 0, i32 14
  %51 = load i32, ptr %10, align 4, !tbaa !57
  %52 = load i32, ptr %10, align 4, !tbaa !57
  %53 = shl i32 1, %52
  %54 = sub nsw i32 %53, 1
  call void @put_bits(ptr noundef %50, i32 noundef %51, i32 noundef %54)
  br label %55

55:                                               ; preds = %48, %45
  %56 = load ptr, ptr %5, align 8, !tbaa !29
  %57 = getelementptr inbounds nuw %struct.AlacEncodeContext, ptr %56, i32 0, i32 14
  call void @put_bits(ptr noundef %57, i32 noundef 1, i32 noundef 0)
  %58 = load i32, ptr %7, align 4, !tbaa !57
  %59 = icmp ne i32 %58, 1
  br i1 %59, label %60, label %75

60:                                               ; preds = %55
  %61 = load i32, ptr %11, align 4, !tbaa !57
  %62 = icmp sgt i32 %61, 0
  br i1 %62, label %63, label %69

63:                                               ; preds = %60
  %64 = load ptr, ptr %5, align 8, !tbaa !29
  %65 = getelementptr inbounds nuw %struct.AlacEncodeContext, ptr %64, i32 0, i32 14
  %66 = load i32, ptr %7, align 4, !tbaa !57
  %67 = load i32, ptr %11, align 4, !tbaa !57
  %68 = add nsw i32 %67, 1
  call void @put_bits(ptr noundef %65, i32 noundef %66, i32 noundef %68)
  br label %74

69:                                               ; preds = %60
  %70 = load ptr, ptr %5, align 8, !tbaa !29
  %71 = getelementptr inbounds nuw %struct.AlacEncodeContext, ptr %70, i32 0, i32 14
  %72 = load i32, ptr %7, align 4, !tbaa !57
  %73 = sub nsw i32 %72, 1
  call void @put_bits(ptr noundef %71, i32 noundef %73, i32 noundef 0)
  br label %74

74:                                               ; preds = %69, %63
  br label %75

75:                                               ; preds = %74, %55
  br label %76

76:                                               ; preds = %75, %38
  call void @llvm.lifetime.end.p0(i64 4, ptr %11) #10
  call void @llvm.lifetime.end.p0(i64 4, ptr %10) #10
  call void @llvm.lifetime.end.p0(i64 4, ptr %9) #10
  ret void
}