; Function Attrs: nounwind uwtable
define internal fastcc void @encode_scalar(ptr noundef captures(none) %0, i32 noundef %1, i32 noundef %2, i32 noundef %3) unnamed_addr #1 {
  %5 = getelementptr inbounds nuw i8, ptr %0, i64 65632
  %6 = load i32, ptr %5, align 8, !tbaa !42
  %. = tail call i32 @llvm.smin.i32(i32 %2, i32 %6)
  %notmask = shl nsw i32 -1, %.
  %7 = xor i32 %notmask, -1
  %8 = sdiv i32 %1, %7
  %9 = srem i32 %1, %7
  %10 = icmp sgt i32 %8, 8
  br i1 %10, label %11, label %64

11:                                               ; preds = %4
  %12 = getelementptr inbounds nuw i8, ptr %0, i64 65592
  %13 = load i32, ptr %12, align 8, !tbaa !68
  %14 = getelementptr inbounds nuw i8, ptr %0, i64 65596
  %15 = load i32, ptr %14, align 4, !tbaa !67
  %16 = icmp sgt i32 %15, 9
  br i1 %16, label %17, label %20

17:                                               ; preds = %11
  %18 = shl i32 %13, 9
  %19 = or disjoint i32 %18, 511
  br label %put_bits.exit

20:                                               ; preds = %11
  %21 = getelementptr inbounds nuw i8, ptr %0, i64 65616
  %22 = load ptr, ptr %21, align 8, !tbaa !65
  %23 = getelementptr inbounds nuw i8, ptr %0, i64 65608
  %24 = load ptr, ptr %23, align 8, !tbaa !66
  %25 = ptrtoint ptr %22 to i64
  %26 = ptrtoint ptr %24 to i64
  %27 = sub i64 %25, %26
  %28 = icmp ugt i64 %27, 3
  br i1 %28, label %29, label %37

29:                                               ; preds = %20
  %30 = shl i32 %13, %15
  %31 = sub nsw i32 9, %15
  %32 = lshr i32 511, %31
  %33 = or i32 %32, %30
  %34 = tail call i32 @llvm.bswap.i32(i32 %33)
  store i32 %34, ptr %24, align 1, !tbaa !48
  %35 = load ptr, ptr %23, align 8, !tbaa !66
  %36 = getelementptr inbounds nuw i8, ptr %35, i64 4
  store ptr %36, ptr %23, align 8, !tbaa !66
  br label %put_bits.exit

37:                                               ; preds = %20
  tail call void (ptr, i32, ptr, ...) @av_log(ptr noundef null, i32 noundef 16, ptr noundef nonnull @.str.9) #7
  br label %put_bits.exit

put_bits.exit:                                    ; preds = %29, %37, %17
  %.sink = phi i32 [ -9, %17 ], [ 23, %37 ], [ 23, %29 ]
  %.026.i.i = phi i32 [ %19, %17 ], [ 511, %37 ], [ 511, %29 ]
  %38 = add nsw i32 %15, %.sink
  store i32 %.026.i.i, ptr %12, align 8, !tbaa !68
  store i32 %38, ptr %14, align 4, !tbaa !67
  %39 = icmp slt i32 %3, %38
  br i1 %39, label %40, label %44

40:                                               ; preds = %put_bits.exit
  %41 = shl i32 %.026.i.i, %3
  %42 = or i32 %41, %1
  %43 = sub nsw i32 %38, %3
  br label %put_bits.exit34

44:                                               ; preds = %put_bits.exit
  %45 = getelementptr inbounds nuw i8, ptr %0, i64 65616
  %46 = load ptr, ptr %45, align 8, !tbaa !65
  %47 = getelementptr inbounds nuw i8, ptr %0, i64 65608
  %48 = load ptr, ptr %47, align 8, !tbaa !66
  %49 = ptrtoint ptr %46 to i64
  %50 = ptrtoint ptr %48 to i64
  %51 = sub i64 %49, %50
  %52 = icmp ugt i64 %51, 3
  br i1 %52, label %53, label %61

53:                                               ; preds = %44
  %54 = shl i32 %.026.i.i, %38
  %55 = sub nsw i32 %3, %38
  %56 = lshr i32 %1, %55
  %57 = or i32 %56, %54
  %58 = tail call i32 @llvm.bswap.i32(i32 %57)
  store i32 %58, ptr %48, align 1, !tbaa !48
  %59 = load ptr, ptr %47, align 8, !tbaa !66
  %60 = getelementptr inbounds nuw i8, ptr %59, i64 4
  store ptr %60, ptr %47, align 8, !tbaa !66
  br label %62

61:                                               ; preds = %44
  tail call void (ptr, i32, ptr, ...) @av_log(ptr noundef null, i32 noundef 16, ptr noundef nonnull @.str.9) #7
  br label %62

62:                                               ; preds = %61, %53
  %reass.sub56 = sub i32 %38, %3
  %63 = add i32 %reass.sub56, 32
  br label %put_bits.exit34

put_bits.exit34:                                  ; preds = %40, %62
  %.026.i.i32 = phi i32 [ %42, %40 ], [ %1, %62 ]
  %.0.i.i33 = phi i32 [ %43, %40 ], [ %63, %62 ]
  store i32 %.026.i.i32, ptr %12, align 8, !tbaa !68
  store i32 %.0.i.i33, ptr %14, align 4, !tbaa !67
  br label %170

64:                                               ; preds = %4
  %.not = icmp eq i32 %8, 0
  %.phi.trans.insert = getelementptr inbounds nuw i8, ptr %0, i64 65592
  br i1 %.not, label %._crit_edge, label %65

._crit_edge:                                      ; preds = %64
  %.pre = load i32, ptr %.phi.trans.insert, align 8, !tbaa !68
  %.phi.trans.insert57 = getelementptr inbounds nuw i8, ptr %0, i64 65596
  %.pre58 = load i32, ptr %.phi.trans.insert57, align 4, !tbaa !67
  br label %95

65:                                               ; preds = %64
  %notmask29 = shl nsw i32 -1, %8
  %66 = xor i32 %notmask29, -1
  %67 = load i32, ptr %.phi.trans.insert, align 8, !tbaa !68
  %68 = getelementptr inbounds nuw i8, ptr %0, i64 65596
  %69 = load i32, ptr %68, align 4, !tbaa !67
  %70 = icmp slt i32 %8, %69
  br i1 %70, label %71, label %75

71:                                               ; preds = %65
  %72 = shl i32 %67, %8
  %73 = or i32 %72, %66
  %74 = sub nsw i32 %69, %8
  br label %put_bits.exit38

75:                                               ; preds = %65
  %76 = getelementptr inbounds nuw i8, ptr %0, i64 65616
  %77 = load ptr, ptr %76, align 8, !tbaa !65
  %78 = getelementptr inbounds nuw i8, ptr %0, i64 65608
  %79 = load ptr, ptr %78, align 8, !tbaa !66
  %80 = ptrtoint ptr %77 to i64
  %81 = ptrtoint ptr %79 to i64
  %82 = sub i64 %80, %81
  %83 = icmp ugt i64 %82, 3
  br i1 %83, label %84, label %92

84:                                               ; preds = %75
  %85 = shl i32 %67, %69
  %86 = sub nsw i32 %8, %69
  %87 = lshr i32 %66, %86
  %88 = or i32 %87, %85
  %89 = tail call i32 @llvm.bswap.i32(i32 %88)
  store i32 %89, ptr %79, align 1, !tbaa !48
  %90 = load ptr, ptr %78, align 8, !tbaa !66
  %91 = getelementptr inbounds nuw i8, ptr %90, i64 4
  store ptr %91, ptr %78, align 8, !tbaa !66
  br label %93

92:                                               ; preds = %75
  tail call void (ptr, i32, ptr, ...) @av_log(ptr noundef null, i32 noundef 16, ptr noundef nonnull @.str.9) #7
  br label %93

93:                                               ; preds = %92, %84
  %reass.sub = sub i32 %69, %8
  %94 = add i32 %reass.sub, 32
  br label %put_bits.exit38

put_bits.exit38:                                  ; preds = %71, %93
  %.026.i.i36 = phi i32 [ %73, %71 ], [ %66, %93 ]
  %.0.i.i37 = phi i32 [ %74, %71 ], [ %94, %93 ]
  store i32 %.026.i.i36, ptr %.phi.trans.insert, align 8, !tbaa !68
  store i32 %.0.i.i37, ptr %68, align 4, !tbaa !67
  br label %95

95:                                               ; preds = %._crit_edge, %put_bits.exit38
  %96 = phi i32 [ %.pre58, %._crit_edge ], [ %.0.i.i37, %put_bits.exit38 ]
  %97 = phi i32 [ %.pre, %._crit_edge ], [ %.026.i.i36, %put_bits.exit38 ]
  %98 = getelementptr inbounds nuw i8, ptr %0, i64 65592
  %99 = getelementptr inbounds nuw i8, ptr %0, i64 65596
  %100 = icmp sgt i32 %96, 1
  br i1 %100, label %101, label %103

101:                                              ; preds = %95
  %102 = shl i32 %97, 1
  br label %put_bits.exit42

103:                                              ; preds = %95
  %104 = getelementptr inbounds nuw i8, ptr %0, i64 65616
  %105 = load ptr, ptr %104, align 8, !tbaa !65
  %106 = getelementptr inbounds nuw i8, ptr %0, i64 65608
  %107 = load ptr, ptr %106, align 8, !tbaa !66
  %108 = ptrtoint ptr %105 to i64
  %109 = ptrtoint ptr %107 to i64
  %110 = sub i64 %108, %109
  %111 = icmp ugt i64 %110, 3
  br i1 %111, label %112, label %117

112:                                              ; preds = %103
  %113 = shl i32 %97, %96
  %114 = tail call i32 @llvm.bswap.i32(i32 %113)
  store i32 %114, ptr %107, align 1, !tbaa !48
  %115 = load ptr, ptr %106, align 8, !tbaa !66
  %116 = getelementptr inbounds nuw i8, ptr %115, i64 4
  store ptr %116, ptr %106, align 8, !tbaa !66
  br label %put_bits.exit42

117:                                              ; preds = %103
  tail call void (ptr, i32, ptr, ...) @av_log(ptr noundef null, i32 noundef 16, ptr noundef nonnull @.str.9) #7
  br label %put_bits.exit42

put_bits.exit42:                                  ; preds = %112, %117, %101
  %.sink59 = phi i32 [ -1, %101 ], [ 31, %117 ], [ 31, %112 ]
  %.026.i.i40 = phi i32 [ %102, %101 ], [ 0, %117 ], [ 0, %112 ]
  %118 = add nsw i32 %96, %.sink59
  store i32 %.026.i.i40, ptr %98, align 8, !tbaa !68
  store i32 %118, ptr %99, align 4, !tbaa !67
  %.not30 = icmp eq i32 %., 1
  br i1 %.not30, label %170, label %119

119:                                              ; preds = %put_bits.exit42
  %120 = icmp sgt i32 %9, 0
  br i1 %120, label %121, label %148

121:                                              ; preds = %119
  %122 = add nuw nsw i32 %9, 1
  %123 = icmp slt i32 %., %118
  br i1 %123, label %124, label %128

124:                                              ; preds = %121
  %125 = shl i32 %.026.i.i40, %.
  %126 = or i32 %125, %122
  %127 = sub nsw i32 %118, %.
  br label %put_bits.exit46

128:                                              ; preds = %121
  %129 = getelementptr inbounds nuw i8, ptr %0, i64 65616
  %130 = load ptr, ptr %129, align 8, !tbaa !65
  %131 = getelementptr inbounds nuw i8, ptr %0, i64 65608
  %132 = load ptr, ptr %131, align 8, !tbaa !66
  %133 = ptrtoint ptr %130 to i64
  %134 = ptrtoint ptr %132 to i64
  %135 = sub i64 %133, %134
  %136 = icmp ugt i64 %135, 3
  br i1 %136, label %137, label %145

137:                                              ; preds = %128
  %138 = shl i32 %.026.i.i40, %118
  %139 = sub nsw i32 %., %118
  %140 = lshr i32 %122, %139
  %141 = or i32 %140, %138
  %142 = tail call i32 @llvm.bswap.i32(i32 %141)
  store i32 %142, ptr %132, align 1, !tbaa !48
  %143 = load ptr, ptr %131, align 8, !tbaa !66
  %144 = getelementptr inbounds nuw i8, ptr %143, i64 4
  store ptr %144, ptr %131, align 8, !tbaa !66
  br label %146

145:                                              ; preds = %128
  tail call void (ptr, i32, ptr, ...) @av_log(ptr noundef null, i32 noundef 16, ptr noundef nonnull @.str.9) #7
  br label %146

146:                                              ; preds = %145, %137
  %reass.sub55 = sub i32 %118, %.
  %147 = add i32 %reass.sub55, 32
  br label %put_bits.exit46

put_bits.exit46:                                  ; preds = %124, %146
  %.026.i.i44 = phi i32 [ %126, %124 ], [ %122, %146 ]
  %.0.i.i45 = phi i32 [ %127, %124 ], [ %147, %146 ]
  store i32 %.026.i.i44, ptr %98, align 8, !tbaa !68
  store i32 %.0.i.i45, ptr %99, align 4, !tbaa !67
  br label %170

148:                                              ; preds = %119
  %.not51 = icmp sgt i32 %., %118
  br i1 %.not51, label %153, label %149

149:                                              ; preds = %148
  %150 = add nsw i32 %., -1
  %151 = shl i32 %.026.i.i40, %150
  %152 = sub nsw i32 %118, %150
  br label %put_bits.exit50

153:                                              ; preds = %148
  %154 = getelementptr inbounds nuw i8, ptr %0, i64 65616
  %155 = load ptr, ptr %154, align 8, !tbaa !65
  %156 = getelementptr inbounds nuw i8, ptr %0, i64 65608
  %157 = load ptr, ptr %156, align 8, !tbaa !66
  %158 = ptrtoint ptr %155 to i64
  %159 = ptrtoint ptr %157 to i64
  %160 = sub i64 %158, %159
  %161 = icmp ugt i64 %160, 3
  br i1 %161, label %162, label %167

162:                                              ; preds = %153
  %163 = shl i32 %.026.i.i40, %118
  %164 = tail call i32 @llvm.bswap.i32(i32 %163)
  store i32 %164, ptr %157, align 1, !tbaa !48
  %165 = load ptr, ptr %156, align 8, !tbaa !66
  %166 = getelementptr inbounds nuw i8, ptr %165, i64 4
  store ptr %166, ptr %156, align 8, !tbaa !66
  br label %168

167:                                              ; preds = %153
  tail call void (ptr, i32, ptr, ...) @av_log(ptr noundef null, i32 noundef 16, ptr noundef nonnull @.str.9) #7
  br label %168

168:                                              ; preds = %167, %162
  %reass.sub54 = sub i32 %118, %.
  %169 = add i32 %reass.sub54, 33
  br label %put_bits.exit50

put_bits.exit50:                                  ; preds = %149, %168
  %.026.i.i48 = phi i32 [ %151, %149 ], [ 0, %168 ]
  %.0.i.i49 = phi i32 [ %152, %149 ], [ %169, %168 ]
  store i32 %.026.i.i48, ptr %98, align 8, !tbaa !68
  store i32 %.0.i.i49, ptr %99, align 4, !tbaa !67
  br label %170

170:                                              ; preds = %put_bits.exit42, %put_bits.exit50, %put_bits.exit46, %put_bits.exit34
  ret void
}